target datalayout = "e-m:e-p270:32:32-p271:32:32-p272:64:64-i64:64-i128:128-f80:128-n8:16:32:64-S128"
target triple = "x86_64-pc-linux-gnu"

%struct._zend_llist = type { ptr, ptr, i64, i64, ptr, i8, ptr }
%struct._zend_llist_element = type { ptr, ptr, [1 x i8] }
%struct.__va_list_tag = type { i32, i32, ptr, ptr }

; Function Attrs: nounwind uwtable
define void @zend_llist_apply_with_arguments(ptr noundef %0, ptr noundef %1, i32 noundef %2, ...) #0 {
  %4 = alloca ptr, align 8
  %5 = alloca ptr, align 8
  %6 = alloca i32, align 4
  %7 = alloca ptr, align 8
  %8 = alloca [1 x %struct.__va_list_tag], align 16
  store ptr %0, ptr %4, align 8
  store ptr %1, ptr %5, align 8
  store i32 %2, ptr %6, align 4
  %9 = getelementptr inbounds [1 x %struct.__va_list_tag], ptr %8, i64 0, i64 0
  call void @llvm.va_start(ptr %9)
  %10 = load ptr, ptr %4, align 8
  %11 = getelementptr inbounds %struct._zend_llist, ptr %10, i32 0, i32 0
  %12 = load ptr, ptr %11, align 8
  store ptr %12, ptr %7, align 8
  br label %13

13:                                               ; preds = %23, %3
  %14 = load ptr, ptr %7, align 8
  %15 = icmp ne ptr %14, null
  br i1 %15, label %16, label %27

16:                                               ; preds = %13
  %17 = load ptr, ptr %5, align 8
  %18 = load ptr, ptr %7, align 8
  %19 = getelementptr inbounds %struct._zend_llist_element, ptr %18, i32 0, i32 2
  %20 = getelementptr inbounds [1 x i8], ptr %19, i64 0, i64 0
  %21 = load i32, ptr %6, align 4
  %22 = getelementptr inbounds [1 x %struct.__va_list_tag], ptr %8, i64 0, i64 0
  call void %17(ptr noundef %20, i32 noundef %21, ptr noundef %22)
  br label %23

23:                                               ; preds = %16
  %24 = load ptr, ptr %7, align 8
  %25 = getelementptr inbounds %struct._zend_llist_element, ptr %24, i32 0, i32 0
  %26 = load ptr, ptr %25, align 8
  store ptr %26, ptr %7, align 8
  br label %13

27:                                               ; preds = %13
  %28 = getelementptr inbounds [1 x %struct.__va_list_tag], ptr %8, i64 0, i64 0
  call void @llvm.va_end(ptr %28)
  ret void
}