; Function Attrs: nounwind uwtable
define void @zend_llist_apply_with_arguments(ptr nocapture noundef readonly %0, ptr nocapture noundef readonly %1, i32 noundef %2, ...) local_unnamed_addr #1 {
  %4 = alloca [1 x %struct.__va_list_tag], align 16
  call void @llvm.va_start(ptr nonnull %4)
  %.05 = load ptr, ptr %0, align 8
  %.not6 = icmp eq ptr %.05, null
  br i1 %.not6, label %._crit_edge, label %.lr.ph

.lr.ph:                                           ; preds = %3, %.lr.ph
  %.07 = phi ptr [ %.0, %.lr.ph ], [ %.05, %3 ]
  %5 = getelementptr inbounds i8, ptr %.07, i64 16
  call void %1(ptr noundef nonnull %5, i32 noundef %2, ptr noundef nonnull %4) #13
  %.0 = load ptr, ptr %.07, align 8
  %.not = icmp eq ptr %.0, null
  br i1 %.not, label %._crit_edge, label %.lr.ph

._crit_edge:                                      ; preds = %.lr.ph, %3
  call void @llvm.va_end(ptr nonnull %4)
  ret void
}